; Function Attrs: nounwind sspstrong uwtable
define internal void @vfio_req_notifier_handler(ptr noundef %opaque) #0 {
entry:
  %err = alloca ptr, align 8
  store ptr null, ptr %err, align 8
  %req_notifier = getelementptr inbounds nuw i8, ptr %opaque, i64 3476
  %call = tail call i32 @event_notifier_test_and_clear(ptr noundef nonnull %req_notifier) #23
  %tobool.not = icmp eq i32 %call, 0
  br i1 %tobool.not, label %if.end4, label %if.end

if.end:                                           ; preds = %entry
  %call.i = tail call ptr @object_dynamic_cast_assert(ptr noundef nonnull %opaque, ptr noundef nonnull @.str.71, ptr noundef nonnull @.str.72, i32 noundef 77, ptr noundef nonnull @__func__.DEVICE) #23
  call void @qdev_unplug(ptr noundef %call.i, ptr noundef nonnull %err) #23
  %0 = load ptr, ptr %err, align 8
  %tobool2.not = icmp eq ptr %0, null
  br i1 %tobool2.not, label %if.end4, label %if.then3

if.then3:                                         ; preds = %if.end
  %name = getelementptr inbounds nuw i8, ptr %opaque, i64 2680
  %1 = load ptr, ptr %name, align 8
  call void (ptr, ptr, ...) @warn_reportf_err(ptr noundef nonnull %0, ptr noundef nonnull @.str.42, ptr noundef %1) #23
  br label %if.end4

if.end4:                                          ; preds = %entry, %if.then3, %if.end
  ret void
}